target datalayout = "e-m:e-p270:32:32-p271:32:32-p272:64:64-i64:64-f80:128-n8:16:32:64-S128"
target triple = "x86_64-pc-linux-gnu"

@.str = private unnamed_addr constant [3 x i8] c"%d\00", align 1
@.str.1 = private unnamed_addr constant [3 x i8] c"%s\00", align 1
@.str.2 = private unnamed_addr constant [4 x i8] c"NO\0A\00", align 1
@.str.3 = private unnamed_addr constant [4 x i8] c"%d\0A\00", align 1
@.str.4 = private unnamed_addr constant [4 x i8] c"%s\0A\00", align 1

; Function Attrs: noinline nounwind uwtable
define dso_local i32 @main() #0 {
  %1 = alloca i32, align 4
  %2 = alloca i32, align 4
  %3 = alloca i32, align 4
  %4 = alloca i32, align 4
  %5 = alloca i32, align 4
  %6 = alloca i32, align 4
  %7 = alloca i32, align 4
  %8 = alloca [500 x i32], align 16
  %9 = alloca [500 x i8], align 16
  %10 = alloca [6 x i8], align 1
  %11 = alloca [500 x [6 x i8]], align 16
  store i32 0, i32* %1, align 4
  %12 = call i32 (i8*, ...) @__isoc99_scanf(i8* getelementptr inbounds ([3 x i8], [3 x i8]* @.str, i64 0, i64 0), i32* %4)
  %13 = getelementptr inbounds [500 x i8], [500 x i8]* %9, i64 0, i64 0
  %14 = call i32 (i8*, ...) @__isoc99_scanf(i8* getelementptr inbounds ([3 x i8], [3 x i8]* @.str.1, i64 0, i64 0), i8* %13)
  %15 = getelementptr inbounds [500 x i8], [500 x i8]* %9, i64 0, i64 0
  %16 = call i64 @strlen(i8* %15) #4
  %17 = trunc i64 %16 to i32
  store i32 %17, i32* %5, align 4
  store i32 0, i32* %2, align 4
  br label %18

18:                                               ; preds = %50, %0
  %19 = load i32, i32* %2, align 4
  %20 = load i32, i32* %5, align 4
  %21 = load i32, i32* %4, align 4
  %22 = sub nsw i32 %20, %21
  %23 = add nsw i32 %22, 1
  %24 = icmp slt i32 %19, %23
  br i1 %24, label %25, label %53

25:                                               ; preds = %18
  %26 = load i32, i32* %2, align 4
  %27 = sext i32 %26 to i64
  %28 = getelementptr inbounds [500 x i32], [500 x i32]* %8, i64 0, i64 %27
  store i32 0, i32* %28, align 4
  store i32 0, i32* %3, align 4
  br label %29

29:                                               ; preds = %46, %25
  %30 = load i32, i32* %3, align 4
  %31 = load i32, i32* %4, align 4
  %32 = icmp slt i32 %30, %31
  br i1 %32, label %33, label %49

33:                                               ; preds = %29
  %34 = load i32, i32* %2, align 4
  %35 = load i32, i32* %3, align 4
  %36 = add nsw i32 %34, %35
  %37 = sext i32 %36 to i64
  %38 = getelementptr inbounds [500 x i8], [500 x i8]* %9, i64 0, i64 %37
  %39 = load i8, i8* %38, align 1
  %40 = load i32, i32* %2, align 4
  %41 = sext i32 %40 to i64
  %42 = getelementptr inbounds [500 x [6 x i8]], [500 x [6 x i8]]* %11, i64 0, i64 %41
  %43 = load i32, i32* %3, align 4
  %44 = sext i32 %43 to i64
  %45 = getelementptr inbounds [6 x i8], [6 x i8]* %42, i64 0, i64 %44
  store i8 %39, i8* %45, align 1
  br label %46

46:                                               ; preds = %33
  %47 = load i32, i32* %3, align 4
  %48 = add nsw i32 %47, 1
  store i32 %48, i32* %3, align 4
  br label %29

49:                                               ; preds = %29
  br label %50

50:                                               ; preds = %49
  %51 = load i32, i32* %2, align 4
  %52 = add nsw i32 %51, 1
  store i32 %52, i32* %2, align 4
  br label %18

53:                                               ; preds = %18
  store i32 0, i32* %2, align 4
  br label %54

54:                                               ; preds = %113, %53
  %55 = load i32, i32* %2, align 4
  %56 = load i32, i32* %5, align 4
  %57 = load i32, i32* %4, align 4
  %58 = sub nsw i32 %56, %57
  %59 = add nsw i32 %58, 1
  %60 = icmp slt i32 %55, %59
  br i1 %60, label %61, label %116

61:                                               ; preds = %54
  %62 = load i32, i32* %2, align 4
  %63 = add nsw i32 %62, 1
  store i32 %63, i32* %3, align 4
  br label %64

64:                                               ; preds = %109, %61
  %65 = load i32, i32* %3, align 4
  %66 = load i32, i32* %5, align 4
  %67 = load i32, i32* %4, align 4
  %68 = sub nsw i32 %66, %67
  %69 = add nsw i32 %68, 1
  %70 = icmp slt i32 %65, %69
  br i1 %70, label %71, label %112

71:                                               ; preds = %64
  store i32 0, i32* %6, align 4
  store i32 0, i32* %7, align 4
  br label %72

72:                                               ; preds = %96, %71
  %73 = load i32, i32* %6, align 4
  %74 = load i32, i32* %4, align 4
  %75 = icmp slt i32 %73, %74
  br i1 %75, label %76, label %99

76:                                               ; preds = %72
  %77 = load i32, i32* %2, align 4
  %78 = sext i32 %77 to i64
  %79 = getelementptr inbounds [500 x [6 x i8]], [500 x [6 x i8]]* %11, i64 0, i64 %78
  %80 = load i32, i32* %6, align 4
  %81 = sext i32 %80 to i64
  %82 = getelementptr inbounds [6 x i8], [6 x i8]* %79, i64 0, i64 %81
  %83 = load i8, i8* %82, align 1
  %84 = sext i8 %83 to i32
  %85 = load i32, i32* %3, align 4
  %86 = sext i32 %85 to i64
  %87 = getelementptr inbounds [500 x [6 x i8]], [500 x [6 x i8]]* %11, i64 0, i64 %86
  %88 = load i32, i32* %6, align 4
  %89 = sext i32 %88 to i64
  %90 = getelementptr inbounds [6 x i8], [6 x i8]* %87, i64 0, i64 %89
  %91 = load i8, i8* %90, align 1
  %92 = sext i8 %91 to i32
  %93 = icmp ne i32 %84, %92
  br i1 %93, label %94, label %95

94:                                               ; preds = %76
  store i32 1, i32* %7, align 4
  br label %99

95:                                               ; preds = %76
  br label %96

96:                                               ; preds = %95
  %97 = load i32, i32* %6, align 4
  %98 = add nsw i32 %97, 1
  store i32 %98, i32* %6, align 4
  br label %72

99:                                               ; preds = %94, %72
  %100 = load i32, i32* %7, align 4
  %101 = icmp eq i32 %100, 0
  br i1 %101, label %102, label %108

102:                                              ; preds = %99
  %103 = load i32, i32* %2, align 4
  %104 = sext i32 %103 to i64
  %105 = getelementptr inbounds [500 x i32], [500 x i32]* %8, i64 0, i64 %104
  %106 = load i32, i32* %105, align 4
  %107 = add nsw i32 %106, 1
  store i32 %107, i32* %105, align 4
  br label %108

108:                                              ; preds = %102, %99
  br label %109

109:                                              ; preds = %108
  %110 = load i32, i32* %3, align 4
  %111 = add nsw i32 %110, 1
  store i32 %111, i32* %3, align 4
  br label %64

112:                                              ; preds = %64
  br label %113

113:                                              ; preds = %112
  %114 = load i32, i32* %2, align 4
  %115 = add nsw i32 %114, 1
  store i32 %115, i32* %2, align 4
  br label %54

116:                                              ; preds = %54
  store i32 0, i32* %2, align 4
  br label %117

117:                                              ; preds = %186, %116
  %118 = load i32, i32* %2, align 4
  %119 = load i32, i32* %5, align 4
  %120 = load i32, i32* %4, align 4
  %121 = sub nsw i32 %119, %120
  %122 = add nsw i32 %121, 1
  %123 = icmp slt i32 %118, %122
  br i1 %123, label %124, label %189

124:                                              ; preds = %117
  %125 = load i32, i32* %2, align 4
  %126 = add nsw i32 %125, 1
  store i32 %126, i32* %3, align 4
  br label %127

127:                                              ; preds = %182, %124
  %128 = load i32, i32* %3, align 4
  %129 = load i32, i32* %5, align 4
  %130 = load i32, i32* %4, align 4
  %131 = sub nsw i32 %129, %130
  %132 = add nsw i32 %131, 1
  %133 = icmp slt i32 %128, %132
  br i1 %133, label %134, label %185

134:                                              ; preds = %127
  %135 = load i32, i32* %3, align 4
  %136 = sext i32 %135 to i64
  %137 = getelementptr inbounds [500 x i32], [500 x i32]* %8, i64 0, i64 %136
  %138 = load i32, i32* %137, align 4
  %139 = load i32, i32* %2, align 4
  %140 = sext i32 %139 to i64
  %141 = getelementptr inbounds [500 x i32], [500 x i32]* %8, i64 0, i64 %140
  %142 = load i32, i32* %141, align 4
  %143 = icmp sgt i32 %138, %142
  br i1 %143, label %144, label %181

144:                                              ; preds = %134
  %145 = load i32, i32* %2, align 4
  %146 = sext i32 %145 to i64
  %147 = getelementptr inbounds [500 x i32], [500 x i32]* %8, i64 0, i64 %146
  %148 = load i32, i32* %147, align 4
  store i32 %148, i32* %7, align 4
  %149 = load i32, i32* %3, align 4
  %150 = sext i32 %149 to i64
  %151 = getelementptr inbounds [500 x i32], [500 x i32]* %8, i64 0, i64 %150
  %152 = load i32, i32* %151, align 4
  %153 = load i32, i32* %2, align 4
  %154 = sext i32 %153 to i64
  %155 = getelementptr inbounds [500 x i32], [500 x i32]* %8, i64 0, i64 %154
  store i32 %152, i32* %155, align 4
  %156 = load i32, i32* %7, align 4
  %157 = load i32, i32* %3, align 4
  %158 = sext i32 %157 to i64
  %159 = getelementptr inbounds [500 x i32], [500 x i32]* %8, i64 0, i64 %158
  store i32 %156, i32* %159, align 4
  %160 = getelementptr inbounds [6 x i8], [6 x i8]* %10, i64 0, i64 0
  %161 = load i32, i32* %2, align 4
  %162 = sext i32 %161 to i64
  %163 = getelementptr inbounds [500 x [6 x i8]], [500 x [6 x i8]]* %11, i64 0, i64 %162
  %164 = getelementptr inbounds [6 x i8], [6 x i8]* %163, i64 0, i64 0
  %165 = call i8* @strcpy(i8* %160, i8* %164) #5
  %166 = load i32, i32* %2, align 4
  %167 = sext i32 %166 to i64
  %168 = getelementptr inbounds [500 x [6 x i8]], [500 x [6 x i8]]* %11, i64 0, i64 %167
  %169 = getelementptr inbounds [6 x i8], [6 x i8]* %168, i64 0, i64 0
  %170 = load i32, i32* %3, align 4
  %171 = sext i32 %170 to i64
  %172 = getelementptr inbounds [500 x [6 x i8]], [500 x [6 x i8]]* %11, i64 0, i64 %171
  %173 = getelementptr inbounds [6 x i8], [6 x i8]* %172, i64 0, i64 0
  %174 = call i8* @strcpy(i8* %169, i8* %173) #5
  %175 = load i32, i32* %3, align 4
  %176 = sext i32 %175 to i64
  %177 = getelementptr inbounds [500 x [6 x i8]], [500 x [6 x i8]]* %11, i64 0, i64 %176
  %178 = getelementptr inbounds [6 x i8], [6 x i8]* %177, i64 0, i64 0
  %179 = getelementptr inbounds [6 x i8], [6 x i8]* %10, i64 0, i64 0
  %180 = call i8* @strcpy(i8* %178, i8* %179) #5
  br label %181

181:                                              ; preds = %144, %134
  br label %182

182:                                              ; preds = %181
  %183 = load i32, i32* %3, align 4
  %184 = add nsw i32 %183, 1
  store i32 %184, i32* %3, align 4
  br label %127

185:                                              ; preds = %127
  br label %186

186:                                              ; preds = %185
  %187 = load i32, i32* %2, align 4
  %188 = add nsw i32 %187, 1
  store i32 %188, i32* %2, align 4
  br label %117

189:                                              ; preds = %117
  %190 = getelementptr inbounds [500 x i32], [500 x i32]* %8, i64 0, i64 0
  %191 = load i32, i32* %190, align 16
  %192 = icmp eq i32 %191, 0
  br i1 %192, label %193, label %195

193:                                              ; preds = %189
  %194 = call i32 (i8*, ...) @printf(i8* getelementptr inbounds ([4 x i8], [4 x i8]* @.str.2, i64 0, i64 0))
  br label %230

195:                                              ; preds = %189
  %196 = getelementptr inbounds [500 x i32], [500 x i32]* %8, i64 0, i64 0
  %197 = load i32, i32* %196, align 16
  %198 = add nsw i32 %197, 1
  %199 = call i32 (i8*, ...) @printf(i8* getelementptr inbounds ([4 x i8], [4 x i8]* @.str.3, i64 0, i64 0), i32 %198)
  %200 = getelementptr inbounds [500 x [6 x i8]], [500 x [6 x i8]]* %11, i64 0, i64 0
  %201 = getelementptr inbounds [6 x i8], [6 x i8]* %200, i64 0, i64 0
  %202 = call i32 (i8*, ...) @printf(i8* getelementptr inbounds ([4 x i8], [4 x i8]* @.str.4, i64 0, i64 0), i8* %201)
  store i32 1, i32* %2, align 4
  br label %203

203:                                              ; preds = %226, %195
  %204 = load i32, i32* %2, align 4
  %205 = load i32, i32* %5, align 4
  %206 = load i32, i32* %4, align 4
  %207 = sub nsw i32 %205, %206
  %208 = add nsw i32 %207, 1
  %209 = icmp slt i32 %204, %208
  br i1 %209, label %210, label %229

210:                                              ; preds = %203
  %211 = load i32, i32* %2, align 4
  %212 = sext i32 %211 to i64
  %213 = getelementptr inbounds [500 x i32], [500 x i32]* %8, i64 0, i64 %212
  %214 = load i32, i32* %213, align 4
  %215 = getelementptr inbounds [500 x i32], [500 x i32]* %8, i64 0, i64 0
  %216 = load i32, i32* %215, align 16
  %217 = icmp eq i32 %214, %216
  br i1 %217, label %218, label %224

218:                                              ; preds = %210
  %219 = load i32, i32* %2, align 4
  %220 = sext i32 %219 to i64
  %221 = getelementptr inbounds [500 x [6 x i8]], [500 x [6 x i8]]* %11, i64 0, i64 %220
  %222 = getelementptr inbounds [6 x i8], [6 x i8]* %221, i64 0, i64 0
  %223 = call i32 (i8*, ...) @printf(i8* getelementptr inbounds ([4 x i8], [4 x i8]* @.str.4, i64 0, i64 0), i8* %222)
  br label %225

224:                                              ; preds = %210
  br label %229

225:                                              ; preds = %218
  br label %226

226:                                              ; preds = %225
  %227 = load i32, i32* %2, align 4
  %228 = add nsw i32 %227, 1
  store i32 %228, i32* %2, align 4
  br label %203

229:                                              ; preds = %224, %203
  br label %230

230:                                              ; preds = %229, %193
  ret i32 0
}